; Function Attrs: nounwind uwtable
define noundef i32 @pmix_bfrops_base_pack_status(ptr noundef %0, ptr noundef %1, ptr noundef readonly captures(none) %2, i32 noundef %3, i16 noundef zeroext %4) local_unnamed_addr #0 {
  %6 = alloca i32, align 4
  call void @llvm.lifetime.start.p0(i64 4, ptr nonnull %6) #8
  %7 = icmp sgt i32 %3, 0
  br i1 %7, label %.lr.ph, label %.loopexit

.lr.ph:                                           ; preds = %5
  %8 = getelementptr inbounds nuw i8, ptr %0, i64 128
  %9 = getelementptr inbounds nuw i8, ptr %0, i64 152
  %wide.trip.count = zext nneg i32 %3 to i64
  br label %10

10:                                               ; preds = %.lr.ph, %23
  %indvars.iv = phi i64 [ 0, %.lr.ph ], [ %indvars.iv.next, %23 ]
  %11 = getelementptr inbounds nuw i32, ptr %2, i64 %indvars.iv
  %12 = load i32, ptr %11, align 4, !tbaa !3
  store i32 %12, ptr %6, align 4, !tbaa !3
  %13 = load i32, ptr %8, align 8, !tbaa !15
  %.not.i = icmp sgt i32 %13, 9
  br i1 %.not.i, label %pmix_pointer_array_get_item.exit, label %.thread, !prof !18

pmix_pointer_array_get_item.exit:                 ; preds = %10
  %14 = load ptr, ptr %9, align 8, !tbaa !19
  %15 = getelementptr inbounds nuw i8, ptr %14, i64 72
  %16 = load ptr, ptr %15, align 8, !tbaa !20
  %17 = icmp eq ptr %16, null
  br i1 %17, label %.thread, label %18

18:                                               ; preds = %pmix_pointer_array_get_item.exit
  %19 = getelementptr inbounds nuw i8, ptr %16, i64 136
  %20 = load ptr, ptr %19, align 8, !tbaa !21
  %21 = call i32 %20(ptr noundef nonnull %0, ptr noundef %1, ptr noundef nonnull %6, i32 noundef 1, i16 noundef zeroext 9) #8
  switch i32 %21, label %.thread [
    i32 0, label %23
    i32 -2, label %.loopexit
  ]

.thread:                                          ; preds = %10, %pmix_pointer_array_get_item.exit, %18
  %.01521 = phi i32 [ %21, %18 ], [ -16, %pmix_pointer_array_get_item.exit ], [ -16, %10 ]
  %22 = call ptr @PMIx_Error_string(i32 noundef %.01521) #8
  call void (i32, ptr, ...) @pmix_output(i32 noundef 0, ptr noundef nonnull @.str, ptr noundef %22, ptr noundef nonnull @.str.1, i32 noundef 454) #8
  br label %.loopexit

23:                                               ; preds = %18
  %indvars.iv.next = add nuw nsw i64 %indvars.iv, 1
  %exitcond.not = icmp eq i64 %indvars.iv.next, %wide.trip.count
  br i1 %exitcond.not, label %.loopexit, label %10, !llvm.loop !59

.loopexit:                                        ; preds = %18, %23, %5, %.thread
  %.0 = phi i32 [ %.01521, %.thread ], [ 0, %5 ], [ %21, %23 ], [ %21, %18 ]
  call void @llvm.lifetime.end.p0(i64 4, ptr nonnull %6) #8
  ret i32 %.0
}